target datalayout = "e-m:e-p270:32:32-p271:32:32-p272:64:64-i64:64-i128:128-f80:128-n8:16:32:64-S128"
target triple = "x86_64-pc-linux-gnu"

%struct.stat = type { i64, i64, i64, i32, i32, i32, i32, i64, i64, i64, i64, %struct.timespec, %struct.timespec, %struct.timespec, [3 x i64] }
%struct.timespec = type { i64, i64 }
%struct.cli_ctx_tag = type { ptr, ptr, ptr, ptr, ptr, ptr, ptr, i64, ptr, i32, i32, ptr, i32, i32, ptr, [16 x i8], ptr, ptr, ptr, ptr, ptr, ptr, %struct.timeval, i8, i8 }
%struct.timeval = type { i64, i64 }
%struct.cl_fmap = type { ptr, ptr, ptr, i64, i64, i64, i64, i8, i8, i8, i64, i64, i64, i64, ptr, ptr, ptr, ptr, ptr, ptr, ptr, i8, [16 x i8], i8, [20 x i8], i8, [32 x i8], ptr, ptr }
%struct.cl_engine = type { i32, i32, i32, [2 x i32], i32, i32, i32, ptr, i32, i64, i32, i32, i64, i64, i32, i32, i32, i32, ptr, ptr, ptr, ptr, ptr, ptr, ptr, ptr, ptr, ptr, ptr, ptr, ptr, ptr, ptr, ptr, ptr, ptr, ptr, i64, ptr, %struct.crtmgr, ptr, ptr, ptr, ptr, ptr, ptr, ptr, ptr, ptr, ptr, ptr, ptr, ptr, ptr, ptr, ptr, ptr, %struct.cli_all_bc, [7 x ptr], [7 x i32], i32, i32, i32, i32, i64, i64, i64, i64, i64, ptr, ptr, ptr, ptr, ptr, ptr, ptr, ptr, ptr, i32, i32, i32, i64, i64, i64, ptr }
%struct.crtmgr = type { ptr, i32 }
%struct.cli_all_bc = type { ptr, i32, ptr, %struct.cli_environment, i32 }
%struct.cli_environment = type { i32, i32, i32, i32, i32, i32, i32, [65 x i8], [65 x i8], [65 x i8], [65 x i8], [65 x i8], [65 x i8], [65 x i8], i8, i8, i8, i8, i8, i8, i8, i8, i8 }

@.str.45 = private unnamed_addr constant [54 x i8] c"in cli_magic_scan_desc_type (recursion_level: %u/%u)\0A\00", align 1
@.str.46 = private unnamed_addr constant [53 x i8] c"cli_magic_scan_desc_type: Can't fstat descriptor %d\0A\00", align 1
@.str.47 = private unnamed_addr constant [63 x i8] c"cli_magic_scan_desc_type: returning %d %s (no post, no cache)\0A\00", align 1
@.str.48 = private unnamed_addr constant [14 x i8] c" at line 5121\00", align 1
@.str.49 = private unnamed_addr constant [23 x i8] c"Small data (%u bytes)\0A\00", align 1
@.str.50 = private unnamed_addr constant [14 x i8] c" at line 5128\00", align 1
@.str.51 = private unnamed_addr constant [25 x i8] c"CRITICAL: fmap() failed\0A\00", align 1
@.str.52 = private unnamed_addr constant [14 x i8] c" at line 5138\00", align 1
@.str.53 = private unnamed_addr constant [22 x i8] c"Failed to scan fmap.\0A\00", align 1

; Function Attrs: nounwind uwtable
define internal void @funmap(ptr noundef %0) #0 {
  %2 = alloca ptr, align 8
  store ptr %0, ptr %2, align 8
  %3 = load ptr, ptr %2, align 8
  %4 = getelementptr inbounds %struct.cl_fmap, ptr %3, i32 0, i32 14
  %5 = load ptr, ptr %4, align 8
  %6 = load ptr, ptr %2, align 8
  call void %5(ptr noundef %6)
  ret void
}

; Function Attrs: nounwind uwtable
define internal void @perf_stop(ptr noundef %0, i32 noundef %1) #0 {
  %3 = alloca ptr, align 8
  %4 = alloca i32, align 4
  store ptr %0, ptr %3, align 8
  store i32 %1, ptr %4, align 4
  %5 = load ptr, ptr %3, align 8
  %6 = getelementptr inbounds %struct.cli_ctx_tag, ptr %5, i32 0, i32 19
  %7 = load ptr, ptr %6, align 8
  %8 = load i32, ptr %4, align 4
  call void @cli_event_time_stop(ptr noundef %7, i32 noundef %8)
  ret void
}

; Function Attrs: nounwind uwtable
define internal void @perf_start(ptr noundef %0, i32 noundef %1) #0 {
  %3 = alloca ptr, align 8
  %4 = alloca i32, align 4
  store ptr %0, ptr %3, align 8
  store i32 %1, ptr %4, align 4
  %5 = load ptr, ptr %3, align 8
  %6 = getelementptr inbounds %struct.cli_ctx_tag, ptr %5, i32 0, i32 19
  %7 = load ptr, ptr %6, align 8
  %8 = load i32, ptr %4, align 4
  call void @cli_event_time_start(ptr noundef %7, i32 noundef %8)
  ret void
}

; Function Attrs: nounwind uwtable
define i32 @cli_magic_scan_desc_type(i32 noundef %0, ptr noundef %1, ptr noundef %2, i32 noundef %3, ptr noundef %4, i32 noundef %5) #0 {
  %7 = alloca i32, align 4
  %8 = alloca i32, align 4
  %9 = alloca ptr, align 8
  %10 = alloca ptr, align 8
  %11 = alloca i32, align 4
  %12 = alloca ptr, align 8
  %13 = alloca i32, align 4
  %14 = alloca %struct.stat, align 8
  %15 = alloca i32, align 4
  %16 = alloca ptr, align 8
  %17 = alloca ptr, align 8
  store i32 %0, ptr %8, align 4
  store ptr %1, ptr %9, align 8
  store ptr %2, ptr %10, align 8
  store i32 %3, ptr %11, align 4
  store ptr %4, ptr %12, align 8
  store i32 %5, ptr %13, align 4
  store i32 0, ptr %15, align 4
  store ptr null, ptr %16, align 8
  %18 = load ptr, ptr %10, align 8
  %19 = icmp ne ptr %18, null
  br i1 %19, label %21, label %20

20:                                               ; preds = %6
  store i32 3, ptr %7, align 4
  br label %88

21:                                               ; preds = %6
  %22 = load ptr, ptr %10, align 8
  %23 = getelementptr inbounds %struct.cli_ctx_tag, ptr %22, i32 0, i32 1
  %24 = load ptr, ptr %23, align 8
  store ptr %24, ptr %17, align 8
  %25 = load ptr, ptr %9, align 8
  %26 = load ptr, ptr %10, align 8
  %27 = getelementptr inbounds %struct.cli_ctx_tag, ptr %26, i32 0, i32 1
  store ptr %25, ptr %27, align 8
  %28 = load ptr, ptr %10, align 8
  %29 = getelementptr inbounds %struct.cli_ctx_tag, ptr %28, i32 0, i32 13
  %30 = load i32, ptr %29, align 4
  %31 = load ptr, ptr %10, align 8
  %32 = getelementptr inbounds %struct.cli_ctx_tag, ptr %31, i32 0, i32 6
  %33 = load ptr, ptr %32, align 8
  %34 = getelementptr inbounds %struct.cl_engine, ptr %33, i32 0, i32 14
  %35 = load i32, ptr %34, align 8
  call void (ptr, ...) @cli_dbgmsg(ptr noundef @.str.45, i32 noundef %30, i32 noundef %35)
  %36 = load i32, ptr %8, align 4
  %37 = call i32 @fstat(i32 noundef %36, ptr noundef %14) #11
  %38 = icmp eq i32 %37, -1
  br i1 %38, label %39, label %42

39:                                               ; preds = %21
  %40 = load i32, ptr %8, align 4
  call void (ptr, ...) @cli_errmsg(ptr noundef @.str.46, i32 noundef %40)
  store i32 11, ptr %15, align 4
  %41 = load i32, ptr %15, align 4
  call void (ptr, ...) @cli_dbgmsg(ptr noundef @.str.47, i32 noundef %41, ptr noundef @.str.48)
  br label %78

42:                                               ; preds = %21
  %43 = getelementptr inbounds %struct.stat, ptr %14, i32 0, i32 8
  %44 = load i64, ptr %43, align 8
  %45 = icmp sle i64 %44, 5
  br i1 %45, label %46, label %51

46:                                               ; preds = %42
  %47 = getelementptr inbounds %struct.stat, ptr %14, i32 0, i32 8
  %48 = load i64, ptr %47, align 8
  %49 = trunc i64 %48 to i32
  call void (ptr, ...) @cli_dbgmsg(ptr noundef @.str.49, i32 noundef %49)
  store i32 0, ptr %15, align 4
  %50 = load i32, ptr %15, align 4
  call void (ptr, ...) @cli_dbgmsg(ptr noundef @.str.47, i32 noundef %50, ptr noundef @.str.50)
  br label %78

51:                                               ; preds = %42
  %52 = load ptr, ptr %10, align 8
  call void @perf_start(ptr noundef %52, i32 noundef 11)
  %53 = load i32, ptr %8, align 4
  %54 = getelementptr inbounds %struct.stat, ptr %14, i32 0, i32 8
  %55 = load i64, ptr %54, align 8
  %56 = load ptr, ptr %12, align 8
  %57 = call ptr @fmap(i32 noundef %53, i64 noundef 0, i64 noundef %55, ptr noundef %56)
  store ptr %57, ptr %16, align 8
  %58 = load ptr, ptr %10, align 8
  call void @perf_stop(ptr noundef %58, i32 noundef 11)
  %59 = load ptr, ptr %16, align 8
  %60 = icmp eq ptr null, %59
  br i1 %60, label %61, label %63

61:                                               ; preds = %51
  call void (ptr, ...) @cli_errmsg(ptr noundef @.str.51)
  store i32 20, ptr %15, align 4
  %62 = load i32, ptr %15, align 4
  call void (ptr, ...) @cli_dbgmsg(ptr noundef @.str.47, i32 noundef %62, ptr noundef @.str.52)
  br label %78

63:                                               ; preds = %51
  %64 = load ptr, ptr %10, align 8
  %65 = load ptr, ptr %16, align 8
  %66 = load i32, ptr %11, align 4
  %67 = load i32, ptr %13, align 4
  %68 = call i32 @cli_recursion_stack_push(ptr noundef %64, ptr noundef %65, i32 noundef %66, i1 noundef zeroext true, i32 noundef %67)
  store i32 %68, ptr %15, align 4
  %69 = load i32, ptr %15, align 4
  %70 = icmp ne i32 0, %69
  br i1 %70, label %71, label %72

71:                                               ; preds = %63
  call void (ptr, ...) @cli_dbgmsg(ptr noundef @.str.53)
  br label %78

72:                                               ; preds = %63
  %73 = load ptr, ptr %10, align 8
  %74 = load i32, ptr %11, align 4
  %75 = call i32 @cli_magic_scan(ptr noundef %73, i32 noundef %74)
  store i32 %75, ptr %15, align 4
  %76 = load ptr, ptr %10, align 8
  %77 = call ptr @cli_recursion_stack_pop(ptr noundef %76)
  br label %78

78:                                               ; preds = %72, %71, %61, %46, %39
  %79 = load ptr, ptr %16, align 8
  %80 = icmp ne ptr null, %79
  br i1 %80, label %81, label %83

81:                                               ; preds = %78
  %82 = load ptr, ptr %16, align 8
  call void @funmap(ptr noundef %82)
  br label %83

83:                                               ; preds = %81, %78
  %84 = load ptr, ptr %17, align 8
  %85 = load ptr, ptr %10, align 8
  %86 = getelementptr inbounds %struct.cli_ctx_tag, ptr %85, i32 0, i32 1
  store ptr %84, ptr %86, align 8
  %87 = load i32, ptr %15, align 4
  store i32 %87, ptr %7, align 4
  br label %88

88:                                               ; preds = %83, %20
  %89 = load i32, ptr %7, align 4
  ret i32 %89
}