; Function Attrs: nounwind uwtable
define i32 @cli_magic_scan_desc_type(i32 noundef %0, ptr noundef %1, ptr noundef %2, i32 noundef %3, ptr noundef %4, i32 noundef %5) local_unnamed_addr #0 {
  %7 = alloca %struct.stat, align 8
  %.not = icmp eq ptr %2, null
  br i1 %.not, label %40, label %8

8:                                                ; preds = %6
  %9 = getelementptr inbounds nuw i8, ptr %2, i64 8
  %10 = load ptr, ptr %9, align 8
  store ptr %1, ptr %9, align 8
  %11 = getelementptr inbounds nuw i8, ptr %2, i64 92
  %12 = load i32, ptr %11, align 4
  %13 = getelementptr inbounds nuw i8, ptr %2, i64 48
  %14 = load ptr, ptr %13, align 8
  %15 = getelementptr inbounds nuw i8, ptr %14, i64 80
  %16 = load i32, ptr %15, align 8
  tail call void (ptr, ...) @cli_dbgmsg(ptr noundef nonnull @.str.45, i32 noundef %12, i32 noundef %16) #16
  %17 = call i32 @fstat(i32 noundef %0, ptr noundef nonnull %7) #16
  %18 = icmp eq i32 %17, -1
  br i1 %18, label %19, label %20

19:                                               ; preds = %8
  tail call void (ptr, ...) @cli_errmsg(ptr noundef nonnull @.str.46, i32 noundef %0) #16
  tail call void (ptr, ...) @cli_dbgmsg(ptr noundef nonnull @.str.47, i32 noundef 11, ptr noundef nonnull @.str.48) #16
  br label %.thread

20:                                               ; preds = %8
  %21 = getelementptr inbounds nuw i8, ptr %7, i64 48
  %22 = load i64, ptr %21, align 8
  %23 = icmp slt i64 %22, 6
  br i1 %23, label %24, label %26

24:                                               ; preds = %20
  %25 = trunc i64 %22 to i32
  tail call void (ptr, ...) @cli_dbgmsg(ptr noundef nonnull @.str.49, i32 noundef %25) #16
  tail call void (ptr, ...) @cli_dbgmsg(ptr noundef nonnull @.str.47, i32 noundef 0, ptr noundef nonnull @.str.50) #16
  br label %.thread

26:                                               ; preds = %20
  %27 = getelementptr i8, ptr %2, i64 144
  %.val = load ptr, ptr %27, align 8
  tail call void @cli_event_time_start(ptr noundef %.val, i32 noundef 11) #16
  %28 = tail call ptr @fmap(i32 noundef %0, i64 noundef 0, i64 noundef %22, ptr noundef %4) #16
  %.val37 = load ptr, ptr %27, align 8
  tail call void @cli_event_time_stop(ptr noundef %.val37, i32 noundef 11) #16
  %29 = icmp eq ptr %28, null
  br i1 %29, label %30, label %31

30:                                               ; preds = %26
  tail call void (ptr, ...) @cli_errmsg(ptr noundef nonnull @.str.51) #16
  tail call void (ptr, ...) @cli_dbgmsg(ptr noundef nonnull @.str.47, i32 noundef 20, ptr noundef nonnull @.str.52) #16
  br label %.thread

31:                                               ; preds = %26
  %32 = tail call i32 @cli_recursion_stack_push(ptr noundef nonnull %2, ptr noundef nonnull %28, i32 noundef %3, i1 noundef zeroext true, i32 noundef %5) #16
  %.not35 = icmp eq i32 %32, 0
  br i1 %.not35, label %34, label %33

33:                                               ; preds = %31
  tail call void (ptr, ...) @cli_dbgmsg(ptr noundef nonnull @.str.53) #16
  br label %37

34:                                               ; preds = %31
  %35 = tail call i32 @cli_magic_scan(ptr noundef nonnull %2, i32 noundef %3)
  %36 = tail call ptr @cli_recursion_stack_pop(ptr noundef nonnull %2) #16
  br label %37

37:                                               ; preds = %33, %34
  %.030 = phi i32 [ %32, %33 ], [ %35, %34 ]
  %38 = getelementptr inbounds nuw i8, ptr %28, i64 96
  %39 = load ptr, ptr %38, align 8
  tail call void %39(ptr noundef nonnull %28) #16
  br label %.thread

.thread:                                          ; preds = %30, %24, %19, %37
  %.03041 = phi i32 [ %.030, %37 ], [ 20, %30 ], [ 0, %24 ], [ 11, %19 ]
  store ptr %10, ptr %9, align 8
  br label %40

40:                                               ; preds = %6, %.thread
  %.0 = phi i32 [ %.03041, %.thread ], [ 3, %6 ]
  ret i32 %.0
}